target datalayout = "e-m:e-p270:32:32-p271:32:32-p272:64:64-i64:64-i128:128-f80:128-n8:16:32:64-S128"
target triple = "x86_64-pc-linux-gnu"

%struct.SResource = type { ptr, i8, i8, i32, i32, i32, i32, i32, ptr, %struct.UString }
%struct.UString = type { ptr, i32, i32 }
%class.ContainerResource = type { %struct.SResource, i32, ptr }
%class.ArrayResource = type { %class.ContainerResource, ptr }

@_ZL11kNoResource = internal global %struct.SResource zeroinitializer, align 8

; Function Attrs: mustprogress nounwind uwtable
define dso_local void @_ZN13ArrayResource3addEP9SResource(ptr noundef nonnull align 8 dereferenceable(80) %0, ptr noundef %1) #4 align 2 {
  %3 = alloca ptr, align 8
  %4 = alloca ptr, align 8
  store ptr %0, ptr %3, align 8, !tbaa !66
  store ptr %1, ptr %4, align 8, !tbaa !24
  %5 = load ptr, ptr %3, align 8
  %6 = load ptr, ptr %4, align 8, !tbaa !24
  %7 = icmp ne ptr %6, null
  br i1 %7, label %8, label %29

8:                                                ; preds = %2
  %9 = load ptr, ptr %4, align 8, !tbaa !24
  %10 = icmp ne ptr %9, @_ZL11kNoResource
  br i1 %10, label %11, label %29

11:                                               ; preds = %8
  %12 = getelementptr inbounds nuw %class.ContainerResource, ptr %5, i32 0, i32 2
  %13 = load ptr, ptr %12, align 8, !tbaa !55
  %14 = icmp eq ptr %13, null
  br i1 %14, label %15, label %18

15:                                               ; preds = %11
  %16 = load ptr, ptr %4, align 8, !tbaa !24
  %17 = getelementptr inbounds nuw %class.ContainerResource, ptr %5, i32 0, i32 2
  store ptr %16, ptr %17, align 8, !tbaa !55
  br label %23

18:                                               ; preds = %11
  %19 = load ptr, ptr %4, align 8, !tbaa !24
  %20 = getelementptr inbounds nuw %class.ArrayResource, ptr %5, i32 0, i32 1
  %21 = load ptr, ptr %20, align 8, !tbaa !68
  %22 = getelementptr inbounds nuw %struct.SResource, ptr %21, i32 0, i32 8
  store ptr %19, ptr %22, align 8, !tbaa !38
  br label %23

23:                                               ; preds = %18, %15
  %24 = load ptr, ptr %4, align 8, !tbaa !24
  %25 = getelementptr inbounds nuw %class.ArrayResource, ptr %5, i32 0, i32 1
  store ptr %24, ptr %25, align 8, !tbaa !68
  %26 = getelementptr inbounds nuw %class.ContainerResource, ptr %5, i32 0, i32 1
  %27 = load i32, ptr %26, align 8, !tbaa !61
  %28 = add i32 %27, 1
  store i32 %28, ptr %26, align 8, !tbaa !61
  br label %29

29:                                               ; preds = %23, %8, %2
  ret void
}