; Function Attrs: mustprogress nofree norecurse nosync nounwind willreturn memory(write, argmem: readwrite, inaccessiblemem: none) uwtable
define dso_local void @_ZN13ArrayResource3addEP9SResource(ptr noundef nonnull align 8 captures(none) dereferenceable(80) %0, ptr noundef %1) local_unnamed_addr #13 align 2 {
  %3 = icmp ne ptr %1, null
  %4 = icmp ne ptr %1, @_ZL11kNoResource
  %or.cond = and i1 %3, %4
  br i1 %or.cond, label %5, label %19

5:                                                ; preds = %2
  %6 = getelementptr inbounds nuw i8, ptr %0, i64 64
  %7 = load ptr, ptr %6, align 8, !tbaa !38
  %8 = icmp eq ptr %7, null
  br i1 %8, label %9, label %10

9:                                                ; preds = %5
  store ptr %1, ptr %6, align 8, !tbaa !38
  br label %14

10:                                               ; preds = %5
  %11 = getelementptr inbounds nuw i8, ptr %0, i64 72
  %12 = load ptr, ptr %11, align 8, !tbaa !46
  %13 = getelementptr inbounds nuw i8, ptr %12, i64 32
  store ptr %1, ptr %13, align 8, !tbaa !19
  br label %14

14:                                               ; preds = %10, %9
  %15 = getelementptr inbounds nuw i8, ptr %0, i64 72
  store ptr %1, ptr %15, align 8, !tbaa !46
  %16 = getelementptr inbounds nuw i8, ptr %0, i64 56
  %17 = load i32, ptr %16, align 8, !tbaa !42
  %18 = add i32 %17, 1
  store i32 %18, ptr %16, align 8, !tbaa !42
  br label %19

19:                                               ; preds = %14, %2
  ret void
}